target datalayout = "e-m:e-p270:32:32-p271:32:32-p272:64:64-i64:64-i128:128-f80:128-n8:16:32:64-S128"
target triple = "x86_64-pc-linux-gnu"

@.str = private unnamed_addr constant [8 x i8] c"#0.'+- \00", align 1
@.str.1 = private unnamed_addr constant [24 x i8] c"* not allowed in format\00", align 1
@.str.2 = private unnamed_addr constant [6 x i8] c"width\00", align 1
@.str.3 = private unnamed_addr constant [10 x i8] c"precision\00", align 1
@.str.4 = private unnamed_addr constant [20 x i8] c"bad format char: %c\00", align 1
@.str.33 = private unnamed_addr constant [23 x i8] c"field %s too large: %d\00", align 1

; Function Attrs: nounwind uwtable
define internal i32 @file_checkfield(ptr noundef %0, i64 noundef %1, ptr noundef %2, ptr noundef %3) #0 {
  %5 = alloca i32, align 4
  %6 = alloca ptr, align 8
  %7 = alloca i64, align 8
  %8 = alloca ptr, align 8
  %9 = alloca ptr, align 8
  %10 = alloca ptr, align 8
  %11 = alloca i32, align 4
  store ptr %0, ptr %6, align 8
  store i64 %1, ptr %7, align 8
  store ptr %2, ptr %8, align 8
  store ptr %3, ptr %9, align 8
  %12 = load ptr, ptr %9, align 8
  %13 = load ptr, ptr %12, align 8
  store ptr %13, ptr %10, align 8
  store i32 0, ptr %11, align 4
  br label %14

14:                                               ; preds = %33, %4
  %15 = load ptr, ptr %10, align 8
  %16 = load i8, ptr %15, align 1
  %17 = sext i8 %16 to i32
  %18 = icmp ne i32 %17, 0
  br i1 %18, label %19, label %31

19:                                               ; preds = %14
  %20 = call ptr @__ctype_b_loc() #12
  %21 = load ptr, ptr %20, align 8
  %22 = load ptr, ptr %10, align 8
  %23 = load i8, ptr %22, align 1
  %24 = zext i8 %23 to i32
  %25 = sext i32 %24 to i64
  %26 = getelementptr inbounds i16, ptr %21, i64 %25
  %27 = load i16, ptr %26, align 2
  %28 = zext i16 %27 to i32
  %29 = and i32 %28, 2048
  %30 = icmp ne i32 %29, 0
  br label %31

31:                                               ; preds = %19, %14
  %32 = phi i1 [ false, %14 ], [ %30, %19 ]
  br i1 %32, label %33, label %42

33:                                               ; preds = %31
  %34 = load i32, ptr %11, align 4
  %35 = mul nsw i32 %34, 10
  %36 = load ptr, ptr %10, align 8
  %37 = getelementptr inbounds i8, ptr %36, i32 1
  store ptr %37, ptr %10, align 8
  %38 = load i8, ptr %36, align 1
  %39 = sext i8 %38 to i32
  %40 = sub nsw i32 %39, 48
  %41 = add nsw i32 %35, %40
  store i32 %41, ptr %11, align 4
  br label %14

42:                                               ; preds = %31
  %43 = load ptr, ptr %10, align 8
  %44 = load ptr, ptr %9, align 8
  store ptr %43, ptr %44, align 8
  %45 = load i32, ptr %11, align 4
  %46 = icmp slt i32 %45, 1024
  br i1 %46, label %47, label %48

47:                                               ; preds = %42
  store i32 1, ptr %5, align 4
  br label %58

48:                                               ; preds = %42
  %49 = load ptr, ptr %6, align 8
  %50 = icmp ne ptr %49, null
  br i1 %50, label %51, label %57

51:                                               ; preds = %48
  %52 = load ptr, ptr %6, align 8
  %53 = load i64, ptr %7, align 8
  %54 = load ptr, ptr %8, align 8
  %55 = load i32, ptr %11, align 4
  %56 = call i32 (ptr, i64, ptr, ...) @ap_php_snprintf(ptr noundef %52, i64 noundef %53, ptr noundef @.str.33, ptr noundef %54, i32 noundef %55)
  br label %57

57:                                               ; preds = %51, %48
  store i32 0, ptr %5, align 4
  br label %58

58:                                               ; preds = %57, %47
  %59 = load i32, ptr %5, align 4
  ret i32 %59
}

; Function Attrs: nounwind uwtable
define hidden i32 @file_checkfmt(ptr noundef %0, i64 noundef %1, ptr noundef %2) #0 {
  %4 = alloca i32, align 4
  %5 = alloca ptr, align 8
  %6 = alloca i64, align 8
  %7 = alloca ptr, align 8
  %8 = alloca ptr, align 8
  store ptr %0, ptr %5, align 8
  store i64 %1, ptr %6, align 8
  store ptr %2, ptr %7, align 8
  %9 = load ptr, ptr %7, align 8
  store ptr %9, ptr %8, align 8
  br label %10

10:                                               ; preds = %94, %3
  %11 = load ptr, ptr %8, align 8
  %12 = load i8, ptr %11, align 1
  %13 = icmp ne i8 %12, 0
  br i1 %13, label %14, label %97

14:                                               ; preds = %10
  %15 = load ptr, ptr %8, align 8
  %16 = load i8, ptr %15, align 1
  %17 = sext i8 %16 to i32
  %18 = icmp ne i32 %17, 37
  br i1 %18, label %19, label %20

19:                                               ; preds = %14
  br label %94

20:                                               ; preds = %14
  %21 = load ptr, ptr %8, align 8
  %22 = getelementptr inbounds i8, ptr %21, i32 1
  store ptr %22, ptr %8, align 8
  %23 = load i8, ptr %22, align 1
  %24 = sext i8 %23 to i32
  %25 = icmp eq i32 %24, 37
  br i1 %25, label %26, label %27

26:                                               ; preds = %20
  br label %94

27:                                               ; preds = %20
  br label %28

28:                                               ; preds = %34, %27
  %29 = load ptr, ptr %8, align 8
  %30 = load i8, ptr %29, align 1
  %31 = sext i8 %30 to i32
  %32 = call ptr @strchr(ptr noundef @.str, i32 noundef %31) #11
  %33 = icmp ne ptr %32, null
  br i1 %33, label %34, label %37

34:                                               ; preds = %28
  %35 = load ptr, ptr %8, align 8
  %36 = getelementptr inbounds i8, ptr %35, i32 1
  store ptr %36, ptr %8, align 8
  br label %28

37:                                               ; preds = %28
  %38 = load ptr, ptr %8, align 8
  %39 = load i8, ptr %38, align 1
  %40 = sext i8 %39 to i32
  %41 = icmp eq i32 %40, 42
  br i1 %41, label %42, label %50

42:                                               ; preds = %37
  %43 = load ptr, ptr %5, align 8
  %44 = icmp ne ptr %43, null
  br i1 %44, label %45, label %49

45:                                               ; preds = %42
  %46 = load ptr, ptr %5, align 8
  %47 = load i64, ptr %6, align 8
  %48 = call i32 (ptr, i64, ptr, ...) @ap_php_snprintf(ptr noundef %46, i64 noundef %47, ptr noundef @.str.1)
  br label %49

49:                                               ; preds = %45, %42
  store i32 -1, ptr %4, align 4
  br label %98

50:                                               ; preds = %37
  %51 = load ptr, ptr %5, align 8
  %52 = load i64, ptr %6, align 8
  %53 = call i32 @file_checkfield(ptr noundef %51, i64 noundef %52, ptr noundef @.str.2, ptr noundef %8)
  %54 = icmp ne i32 %53, 0
  br i1 %54, label %56, label %55

55:                                               ; preds = %50
  store i32 -1, ptr %4, align 4
  br label %98

56:                                               ; preds = %50
  %57 = load ptr, ptr %8, align 8
  %58 = load i8, ptr %57, align 1
  %59 = sext i8 %58 to i32
  %60 = icmp eq i32 %59, 46
  br i1 %60, label %61, label %70

61:                                               ; preds = %56
  %62 = load ptr, ptr %8, align 8
  %63 = getelementptr inbounds i8, ptr %62, i32 1
  store ptr %63, ptr %8, align 8
  %64 = load ptr, ptr %5, align 8
  %65 = load i64, ptr %6, align 8
  %66 = call i32 @file_checkfield(ptr noundef %64, i64 noundef %65, ptr noundef @.str.3, ptr noundef %8)
  %67 = icmp ne i32 %66, 0
  br i1 %67, label %69, label %68

68:                                               ; preds = %61
  store i32 -1, ptr %4, align 4
  br label %98

69:                                               ; preds = %61
  br label %70

70:                                               ; preds = %69, %56
  %71 = call ptr @__ctype_b_loc() #12
  %72 = load ptr, ptr %71, align 8
  %73 = load ptr, ptr %8, align 8
  %74 = load i8, ptr %73, align 1
  %75 = zext i8 %74 to i32
  %76 = sext i32 %75 to i64
  %77 = getelementptr inbounds i16, ptr %72, i64 %76
  %78 = load i16, ptr %77, align 2
  %79 = zext i16 %78 to i32
  %80 = and i32 %79, 1024
  %81 = icmp ne i32 %80, 0
  br i1 %81, label %93, label %82

82:                                               ; preds = %70
  %83 = load ptr, ptr %5, align 8
  %84 = icmp ne ptr %83, null
  br i1 %84, label %85, label %92

85:                                               ; preds = %82
  %86 = load ptr, ptr %5, align 8
  %87 = load i64, ptr %6, align 8
  %88 = load ptr, ptr %8, align 8
  %89 = load i8, ptr %88, align 1
  %90 = sext i8 %89 to i32
  %91 = call i32 (ptr, i64, ptr, ...) @ap_php_snprintf(ptr noundef %86, i64 noundef %87, ptr noundef @.str.4, i32 noundef %90)
  br label %92

92:                                               ; preds = %85, %82
  store i32 -1, ptr %4, align 4
  br label %98

93:                                               ; preds = %70
  br label %94

94:                                               ; preds = %93, %26, %19
  %95 = load ptr, ptr %8, align 8
  %96 = getelementptr inbounds i8, ptr %95, i32 1
  store ptr %96, ptr %8, align 8
  br label %10

97:                                               ; preds = %10
  store i32 0, ptr %4, align 4
  br label %98

98:                                               ; preds = %97, %92, %68, %55, %49
  %99 = load i32, ptr %4, align 4
  ret i32 %99
}