; Function Attrs: nounwind uwtable
define hidden noundef i32 @file_checkfmt(ptr noundef %0, i64 noundef %1, ptr nocapture noundef readonly %2) local_unnamed_addr #2 {
  br label %4

4:                                                ; preds = %75, %3
  %storemerge = phi ptr [ %2, %3 ], [ %76, %75 ]
  %5 = load i8, ptr %storemerge, align 1
  switch i8 %5, label %75 [
    i8 0, label %file_checkfield.exit.thread
    i8 37, label %6
  ]

6:                                                ; preds = %4
  %7 = getelementptr inbounds i8, ptr %storemerge, i64 1
  %8 = load i8, ptr %7, align 1
  %9 = icmp eq i8 %8, 37
  br i1 %9, label %75, label %.preheader

.preheader:                                       ; preds = %6
  %10 = zext nneg i8 %8 to i64
  %memchr.bounds46 = icmp ugt i8 %8, 63
  %11 = shl nuw i64 1, %10
  %12 = and i64 %11, 396412596518913
  %memchr.bits47 = icmp eq i64 %12, 0
  %memchr14.not48 = select i1 %memchr.bounds46, i1 true, i1 %memchr.bits47
  br i1 %memchr14.not48, label %._crit_edge, label %.lr.ph

.lr.ph:                                           ; preds = %.preheader, %.lr.ph
  %.03849 = phi ptr [ %13, %.lr.ph ], [ %7, %.preheader ]
  %13 = getelementptr inbounds i8, ptr %.03849, i64 1
  %.pr = load i8, ptr %13, align 1
  %14 = zext nneg i8 %.pr to i64
  %memchr.bounds = icmp ugt i8 %.pr, 63
  %15 = shl nuw i64 1, %14
  %16 = and i64 %15, 396412596518913
  %memchr.bits = icmp eq i64 %16, 0
  %memchr14.not = select i1 %memchr.bounds, i1 true, i1 %memchr.bits
  br i1 %memchr14.not, label %._crit_edge, label %.lr.ph

._crit_edge:                                      ; preds = %.lr.ph, %.preheader
  %.lcssa = phi i8 [ %8, %.preheader ], [ %.pr, %.lr.ph ]
  %.038.lcssa = phi ptr [ %7, %.preheader ], [ %13, %.lr.ph ]
  switch i8 %.lcssa, label %.lr.ph.i [
    i8 42, label %17
    i8 0, label %file_checkfield.exit32
  ]

17:                                               ; preds = %._crit_edge
  %.not20 = icmp eq ptr %0, null
  br i1 %.not20, label %file_checkfield.exit.thread, label %18

18:                                               ; preds = %17
  %19 = tail call i32 (ptr, i64, ptr, ...) @ap_php_snprintf(ptr noundef nonnull %0, i64 noundef %1, ptr noundef nonnull @.str.1) #17
  br label %file_checkfield.exit.thread

.lr.ph.i:                                         ; preds = %._crit_edge
  %20 = tail call ptr @__ctype_b_loc() #18
  %21 = load ptr, ptr %20, align 8
  br label %22

22:                                               ; preds = %28, %.lr.ph.i
  %23 = phi i8 [ %.lcssa, %.lr.ph.i ], [ %34, %28 ]
  %.021.i = phi i32 [ 0, %.lr.ph.i ], [ %33, %28 ]
  %.01320.i = phi ptr [ %.038.lcssa, %.lr.ph.i ], [ %31, %28 ]
  %24 = zext i8 %23 to i64
  %25 = getelementptr inbounds i16, ptr %21, i64 %24
  %26 = load i16, ptr %25, align 2
  %27 = and i16 %26, 2048
  %.not17.i = icmp eq i16 %27, 0
  br i1 %.not17.i, label %.critedge.i, label %28

28:                                               ; preds = %22
  %29 = sext i8 %23 to i32
  %30 = mul nsw i32 %.021.i, 10
  %31 = getelementptr inbounds i8, ptr %.01320.i, i64 1
  %32 = add nsw i32 %29, -48
  %33 = add i32 %32, %30
  %34 = load i8, ptr %31, align 1
  %.not.i = icmp eq i8 %34, 0
  br i1 %.not.i, label %.critedge.i, label %22

.critedge.i:                                      ; preds = %28, %22
  %35 = phi i8 [ %23, %22 ], [ 0, %28 ]
  %.013.lcssa.i = phi ptr [ %.01320.i, %22 ], [ %31, %28 ]
  %.0.lcssa.i = phi i32 [ %.021.i, %22 ], [ %33, %28 ]
  %36 = icmp slt i32 %.0.lcssa.i, 1024
  br i1 %36, label %file_checkfield.exit, label %37

37:                                               ; preds = %.critedge.i
  %.not18.i = icmp eq ptr %0, null
  br i1 %.not18.i, label %file_checkfield.exit.thread, label %38

38:                                               ; preds = %37
  %39 = tail call i32 (ptr, i64, ptr, ...) @ap_php_snprintf(ptr noundef nonnull %0, i64 noundef %1, ptr noundef nonnull @.str.33, ptr noundef nonnull @.str.2, i32 noundef %.0.lcssa.i) #17
  br label %file_checkfield.exit.thread

file_checkfield.exit:                             ; preds = %.critedge.i
  %40 = icmp eq i8 %35, 46
  br i1 %40, label %41, label %file_checkfield.exit32

41:                                               ; preds = %file_checkfield.exit
  %42 = getelementptr inbounds i8, ptr %.013.lcssa.i, i64 1
  %43 = load i8, ptr %42, align 1
  %.not19.i21 = icmp eq i8 %43, 0
  br i1 %.not19.i21, label %file_checkfield.exit32, label %.lr.ph.i22

.lr.ph.i22:                                       ; preds = %41
  %44 = tail call ptr @__ctype_b_loc() #18
  %45 = load ptr, ptr %44, align 8
  br label %46

46:                                               ; preds = %52, %.lr.ph.i22
  %47 = phi i8 [ %43, %.lr.ph.i22 ], [ %58, %52 ]
  %.021.i23 = phi i32 [ 0, %.lr.ph.i22 ], [ %57, %52 ]
  %.01320.i24 = phi ptr [ %42, %.lr.ph.i22 ], [ %55, %52 ]
  %48 = zext i8 %47 to i64
  %49 = getelementptr inbounds i16, ptr %45, i64 %48
  %50 = load i16, ptr %49, align 2
  %51 = and i16 %50, 2048
  %.not17.i25 = icmp eq i16 %51, 0
  br i1 %.not17.i25, label %.critedge.i27, label %52

52:                                               ; preds = %46
  %53 = sext i8 %47 to i32
  %54 = mul nsw i32 %.021.i23, 10
  %55 = getelementptr inbounds i8, ptr %.01320.i24, i64 1
  %56 = add nsw i32 %53, -48
  %57 = add i32 %56, %54
  %58 = load i8, ptr %55, align 1
  %.not.i26 = icmp eq i8 %58, 0
  br i1 %.not.i26, label %.critedge.i27, label %46

.critedge.i27:                                    ; preds = %52, %46
  %59 = phi i8 [ %47, %46 ], [ 0, %52 ]
  %.013.lcssa.i28 = phi ptr [ %.01320.i24, %46 ], [ %55, %52 ]
  %.0.lcssa.i29 = phi i32 [ %.021.i23, %46 ], [ %57, %52 ]
  %60 = icmp slt i32 %.0.lcssa.i29, 1024
  br i1 %60, label %file_checkfield.exit32, label %61

61:                                               ; preds = %.critedge.i27
  %.not18.i30 = icmp eq ptr %0, null
  br i1 %.not18.i30, label %file_checkfield.exit.thread, label %62

62:                                               ; preds = %61
  %63 = tail call i32 (ptr, i64, ptr, ...) @ap_php_snprintf(ptr noundef nonnull %0, i64 noundef %1, ptr noundef nonnull @.str.33, ptr noundef nonnull @.str.3, i32 noundef %.0.lcssa.i29) #17
  br label %file_checkfield.exit.thread

file_checkfield.exit32:                           ; preds = %._crit_edge, %.critedge.i27, %41, %file_checkfield.exit
  %64 = phi i8 [ %35, %file_checkfield.exit ], [ 0, %41 ], [ %59, %.critedge.i27 ], [ %.lcssa, %._crit_edge ]
  %.3 = phi ptr [ %.013.lcssa.i, %file_checkfield.exit ], [ %42, %41 ], [ %.013.lcssa.i28, %.critedge.i27 ], [ %.038.lcssa, %._crit_edge ]
  %65 = tail call ptr @__ctype_b_loc() #18
  %66 = load ptr, ptr %65, align 8
  %67 = zext i8 %64 to i64
  %68 = getelementptr inbounds i16, ptr %66, i64 %67
  %69 = load i16, ptr %68, align 2
  %70 = and i16 %69, 1024
  %.not18 = icmp eq i16 %70, 0
  br i1 %.not18, label %71, label %75

71:                                               ; preds = %file_checkfield.exit32
  %.not19 = icmp eq ptr %0, null
  br i1 %.not19, label %file_checkfield.exit.thread, label %72

72:                                               ; preds = %71
  %73 = sext i8 %64 to i32
  %74 = tail call i32 (ptr, i64, ptr, ...) @ap_php_snprintf(ptr noundef nonnull %0, i64 noundef %1, ptr noundef nonnull @.str.4, i32 noundef %73) #17
  br label %file_checkfield.exit.thread

75:                                               ; preds = %4, %file_checkfield.exit32, %6
  %.4 = phi ptr [ %storemerge, %4 ], [ %7, %6 ], [ %.3, %file_checkfield.exit32 ]
  %76 = getelementptr inbounds i8, ptr %.4, i64 1
  br label %4

file_checkfield.exit.thread:                      ; preds = %4, %61, %62, %37, %38, %71, %72, %17, %18
  %.0 = phi i32 [ -1, %18 ], [ -1, %17 ], [ -1, %72 ], [ -1, %71 ], [ -1, %38 ], [ -1, %37 ], [ -1, %62 ], [ -1, %61 ], [ 0, %4 ]
  ret i32 %.0
}